; Function Attrs: mustprogress uwtable
define void @_ZN3zmq11io_thread_t11timer_eventEi(ptr nocapture nonnull readnone align 8 %this, i32 %0) unnamed_addr #0 align 2 {
entry:
  %1 = load ptr, ptr @stderr, align 8
  %call = tail call i32 (ptr, ptr, ...) @fprintf(ptr noundef %1, ptr noundef nonnull @.str.5, ptr noundef nonnull @.str.6, ptr noundef nonnull @.str.1, i32 noundef 80) #13
  %2 = load ptr, ptr @stderr, align 8
  %call2 = tail call i32 @fflush(ptr noundef %2)
  tail call void @_ZN3zmq9zmq_abortEPKc(ptr noundef nonnull @.str.6)
  ret void
}